; Function Attrs: mustprogress uwtable
define void @_ZN10open_spiel10bargaining15BargainingState11SetInstanceENS0_8InstanceE(ptr noundef nonnull align 8 dereferenceable(169) %0, ptr noundef nonnull %1) local_unnamed_addr #3 align 2 personality ptr @__gxx_personality_v0 {
  %3 = alloca %"class.std::__cxx11::basic_string", align 8
  %4 = alloca i32, align 4
  %5 = getelementptr inbounds nuw i8, ptr %0, i64 80
  %6 = tail call noundef nonnull align 8 dereferenceable(24) ptr @_ZNSt6vectorIS_IiSaIiEESaIS1_EEaSERKS3_(ptr noundef nonnull align 8 dereferenceable(24) %5, ptr noundef nonnull align 8 dereferenceable(24) %1)
  %7 = getelementptr inbounds i8, ptr %0, i64 104
  %8 = getelementptr inbounds nuw i8, ptr %1, i64 24
  %9 = tail call noundef nonnull align 8 dereferenceable(24) ptr @_ZNSt6vectorIiSaIiEEaSERKS1_(ptr noundef nonnull align 8 dereferenceable(24) %7, ptr noundef nonnull align 8 dereferenceable(24) %8)
  %10 = load ptr, ptr %0, align 8
  %11 = getelementptr inbounds i8, ptr %10, i64 128
  %12 = load ptr, ptr %11, align 8
  %13 = tail call noundef zeroext i1 %12(ptr noundef nonnull align 8 dereferenceable(60) %0)
  br i1 %13, label %14, label %26

14:                                               ; preds = %2
  %15 = getelementptr inbounds nuw i8, ptr %0, i64 128
  %16 = load ptr, ptr %15, align 8
  %17 = getelementptr inbounds i8, ptr %0, i64 136
  %18 = load ptr, ptr %17, align 8
  %19 = icmp eq ptr %16, %18
  br i1 %19, label %24, label %20

20:                                               ; preds = %14
  store i32 309, ptr %4, align 4
  call void @_ZN10open_spiel8internal11SpielStrCatIJRA140_KcRA2_S2_iRA13_S2_RA16_S2_S6_EEENSt7__cxx1112basic_stringIcSt11char_traitsIcESaIcEEEDpOT_(ptr dead_on_unwind nonnull writable sret(%"class.std::__cxx11::basic_string") align 8 %3, ptr noundef nonnull align 1 dereferenceable(140) @.str.17, ptr noundef nonnull align 1 dereferenceable(2) @.str.18, ptr noundef nonnull align 4 dereferenceable(4) %4, ptr noundef nonnull align 1 dereferenceable(13) @.str.47, ptr noundef nonnull align 1 dereferenceable(16) @.str.48, ptr noundef nonnull align 1 dereferenceable(2) @.str.34)
  invoke void @_ZN10open_spiel15SpielFatalErrorERKNSt7__cxx1112basic_stringIcSt11char_traitsIcESaIcEEE(ptr noundef nonnull align 8 dereferenceable(32) %3) #23
          to label %21 unwind label %22

21:                                               ; preds = %20
  unreachable

22:                                               ; preds = %20
  %23 = landingpad { ptr, i32 }
          cleanup
  call void @_ZNSt7__cxx1112basic_stringIcSt11char_traitsIcESaIcEED1Ev(ptr noundef nonnull align 8 dereferenceable(32) %3) #24
  resume { ptr, i32 } %23

24:                                               ; preds = %14
  %25 = getelementptr inbounds nuw i8, ptr %0, i64 60
  store i32 0, ptr %25, align 4
  br label %26

26:                                               ; preds = %24, %2
  ret void
}